; Function Attrs: mustprogress uwtable
define noundef i32 @_ZNK6icu_7512RegexPattern19groupNumberFromNameERKNS_13UnicodeStringER10UErrorCode(ptr nocapture noundef nonnull readonly align 8 dereferenceable(200) %this, ptr noundef nonnull align 8 dereferenceable(64) %groupName, ptr nocapture noundef nonnull align 4 dereferenceable(4) %status) unnamed_addr #1 align 2 {
entry:
  %0 = load i32, ptr %status, align 4
  %cmp.i = icmp slt i32 %0, 1
  br i1 %cmp.i, label %if.end, label %return

if.end:                                           ; preds = %entry
  %fNamedCaptureMap = getelementptr inbounds i8, ptr %this, i64 192
  %1 = load ptr, ptr %fNamedCaptureMap, align 8
  %tobool2.not = icmp eq ptr %1, null
  br i1 %tobool2.not, label %if.then5, label %cond.end

cond.end:                                         ; preds = %if.end
  %call4 = tail call i32 @uhash_geti_75(ptr noundef nonnull %1, ptr noundef nonnull %groupName)
  %cmp = icmp eq i32 %call4, 0
  br i1 %cmp, label %if.then5, label %return

if.then5:                                         ; preds = %if.end, %cond.end
  store i32 66325, ptr %status, align 4
  br label %return

return:                                           ; preds = %cond.end, %if.then5, %entry
  %retval.0 = phi i32 [ 0, %entry ], [ 0, %if.then5 ], [ %call4, %cond.end ]
  ret i32 %retval.0
}